BL51 BANKED LINKER/LOCATER V6.22.2.0                                                    03/11/2020  15:58:57  PAGE 1


BL51 BANKED LINKER/LOCATER V6.22.2.0, INVOKED BY:
C:\KEIL_V5\C51\BIN\BL51.EXE STARTUP.obj, main.obj, oled.obj TO OLED RAMSIZE (256)


MEMORY MODEL: SMALL


INPUT MODULES INCLUDED:
  STARTUP.obj (?C_STARTUP)
  main.obj (MAIN)
  oled.obj (OLED)
  C:\KEIL_V5\C51\LIB\C51S.LIB (?C?CLDOPTR)
  C:\KEIL_V5\C51\LIB\C51S.LIB (?C?IMUL)
  C:\KEIL_V5\C51\LIB\C51S.LIB (?C?UIDIV)


LINK MAP OF MODULE:  OLED (?C_STARTUP)


            TYPE    BASE      LENGTH    RELOCATION   SEGMENT NAME
            -----------------------------------------------------

            * * * * * * *   D A T A   M E M O R Y   * * * * * * *
            REG     0000H     0008H     ABSOLUTE     "REG BANK 0"
            DATA    0008H     0015H     UNIT         _DATA_GROUP_
            IDATA   001DH     0001H     UNIT         ?STACK

            * * * * * * *   C O D E   M E M O R Y   * * * * * * *
            CODE    0000H     0003H     ABSOLUTE     
            CODE    0003H     08F8H     UNIT         ?CO?OLED
            CODE    08FBH     0426H     UNIT         ?CO?MAIN
            CODE    0D21H     00F7H     UNIT         ?PR?MAIN?MAIN
            CODE    0E18H     00C8H     UNIT         ?PR?_OLED_SHOWCHAR?OLED
            CODE    0EE0H     00AEH     UNIT         ?PR?OLED_INIT?OLED
            CODE    0F8EH     0094H     UNIT         ?C?LIB_CODE
            CODE    1022H     008AH     UNIT         ?PR?_OLED_SHOWNUM?OLED
            CODE    10ACH     0085H     UNIT         ?PR?_OLED_SHOWCHINESE?OLED
            CODE    1131H     0068H     UNIT         ?PR?_OLED_DRAWBMP?OLED
            CODE    1199H     004AH     UNIT         ?PR?_OLED_SHOWSTRING?OLED
            CODE    11E3H     003FH     UNIT         ?PR?OLED_CLEAR?OLED
            CODE    1222H     0030H     UNIT         ?PR?_OLED_WR_BYTE?OLED
            CODE    1252H     002CH     UNIT         ?PR?_SEND_BYTE?OLED
            CODE    127EH     0026H     UNIT         ?PR?_OLED_DISPLAYTURN?OLED
            CODE    12A4H     0022H     UNIT         ?PR?_OLED_SET_POS?OLED
            CODE    12C6H     001AH     UNIT         ?PR?_DELAY_MS?OLED
            CODE    12E0H     0018H     UNIT         ?PR?_OLED_COLORTURN?OLED
            CODE    12F8H     0018H     UNIT         ?PR?_OLED_POW?OLED
            CODE    1310H     0015H     UNIT         ?PR?OLED_DISPLAY_ON?OLED
            CODE    1325H     0015H     UNIT         ?PR?OLED_DISPLAY_OFF?OLED
            CODE    133AH     000FH     UNIT         ?PR?I2C_START?OLED
            CODE    1349H     000FH     UNIT         ?PR?I2C_WAITACK?OLED
            CODE    1358H     000CH     UNIT         ?C_C51STARTUP
            CODE    1364H     000AH     UNIT         ?PR?I2C_STOP?OLED
            CODE    136EH     0009H     UNIT         ?PR?IIC_DELAY?OLED



OVERLAY MAP OF MODULE:   OLED (?C_STARTUP)
BL51 BANKED LINKER/LOCATER V6.22.2.0                                                  03/11/2020  15:58:57  PAGE 2




SEGMENT                              DATA_GROUP 
  +--> CALLED SEGMENT              START    LENGTH
--------------------------------------------------
?C_C51STARTUP                      -----    -----
  +--> ?PR?MAIN?MAIN

?PR?MAIN?MAIN                      0008H    0001H
  +--> ?PR?OLED_INIT?OLED
  +--> ?PR?_OLED_COLORTURN?OLED
  +--> ?PR?_OLED_DISPLAYTURN?OLED
  +--> ?CO?MAIN
  +--> ?PR?_OLED_DRAWBMP?OLED
  +--> ?PR?_DELAY_MS?OLED
  +--> ?PR?OLED_CLEAR?OLED
  +--> ?PR?_OLED_SHOWCHINESE?OLED
  +--> ?PR?_OLED_SHOWSTRING?OLED
  +--> ?PR?_OLED_SHOWCHAR?OLED
  +--> ?PR?_OLED_SHOWNUM?OLED

?PR?OLED_INIT?OLED                 -----    -----
  +--> ?PR?_DELAY_MS?OLED
  +--> ?PR?_OLED_WR_BYTE?OLED
  +--> ?PR?OLED_CLEAR?OLED

?PR?_OLED_WR_BYTE?OLED             -----    -----
  +--> ?PR?I2C_START?OLED
  +--> ?PR?_SEND_BYTE?OLED
  +--> ?PR?I2C_WAITACK?OLED
  +--> ?PR?I2C_STOP?OLED

?PR?I2C_START?OLED                 -----    -----
  +--> ?PR?IIC_DELAY?OLED

?PR?_SEND_BYTE?OLED                -----    -----
  +--> ?PR?IIC_DELAY?OLED

?PR?I2C_WAITACK?OLED               -----    -----
  +--> ?PR?IIC_DELAY?OLED

?PR?I2C_STOP?OLED                  -----    -----
  +--> ?PR?IIC_DELAY?OLED

?PR?OLED_CLEAR?OLED                0009H    0001H
  +--> ?PR?_OLED_WR_BYTE?OLED

?PR?_OLED_COLORTURN?OLED           0009H    0001H
  +--> ?PR?_OLED_WR_BYTE?OLED

?PR?_OLED_DISPLAYTURN?OLED         0009H    0001H
  +--> ?PR?_OLED_WR_BYTE?OLED

?PR?_OLED_DRAWBMP?OLED             0009H    000BH
  +--> ?PR?_OLED_SET_POS?OLED
  +--> ?PR?_OLED_WR_BYTE?OLED

BL51 BANKED LINKER/LOCATER V6.22.2.0                                                  03/11/2020  15:58:57  PAGE 3


?PR?_OLED_SET_POS?OLED             -----    -----
  +--> ?PR?_OLED_WR_BYTE?OLED

?PR?_OLED_SHOWCHINESE?OLED         0009H    0008H
  +--> ?PR?_OLED_SET_POS?OLED
  +--> ?CO?OLED
  +--> ?PR?_OLED_WR_BYTE?OLED

?PR?_OLED_SHOWSTRING?OLED          0009H    0007H
  +--> ?PR?_OLED_SHOWCHAR?OLED

?PR?_OLED_SHOWCHAR?OLED            0013H    000AH
  +--> ?PR?_OLED_SET_POS?OLED
  +--> ?CO?OLED
  +--> ?PR?_OLED_WR_BYTE?OLED

?PR?_OLED_SHOWNUM?OLED             0009H    000AH
  +--> ?PR?_OLED_POW?OLED
  +--> ?PR?_OLED_SHOWCHAR?OLED

?PR?_OLED_POW?OLED                 0013H    0001H



SYMBOL TABLE OF MODULE:  OLED (?C_STARTUP)

  VALUE           TYPE          NAME
  ----------------------------------

  -------         MODULE        ?C_STARTUP
  C:1358H         SEGMENT       ?C_C51STARTUP
  I:001DH         SEGMENT       ?STACK
  C:0000H         PUBLIC        ?C_STARTUP
  D:00E0H         SYMBOL        ACC
  D:00F0H         SYMBOL        B
  D:0083H         SYMBOL        DPH
  D:0082H         SYMBOL        DPL
  N:0000H         SYMBOL        IBPSTACK
  N:0100H         SYMBOL        IBPSTACKTOP
  N:0080H         SYMBOL        IDATALEN
  C:135BH         SYMBOL        IDATALOOP
  N:0000H         SYMBOL        PBPSTACK
  N:0100H         SYMBOL        PBPSTACKTOP
  N:0000H         SYMBOL        PDATALEN
  N:0000H         SYMBOL        PDATASTART
  N:0000H         SYMBOL        PPAGE
  N:0000H         SYMBOL        PPAGEENABLE
  D:00A0H         SYMBOL        PPAGE_SFR
  D:0081H         SYMBOL        SP
  C:1358H         SYMBOL        STARTUP1
  N:0000H         SYMBOL        XBPSTACK
  N:0000H         SYMBOL        XBPSTACKTOP
  N:0000H         SYMBOL        XDATALEN
  N:0000H         SYMBOL        XDATASTART
  C:0000H         LINE#         126
  C:1358H         LINE#         133
  C:135AH         LINE#         134
BL51 BANKED LINKER/LOCATER V6.22.2.0                                                  03/11/2020  15:58:57  PAGE 4


  C:135BH         LINE#         135
  C:135CH         LINE#         136
  C:135EH         LINE#         185
  C:1361H         LINE#         196
  -------         ENDMOD        ?C_STARTUP

  -------         MODULE        MAIN
  C:0000H         SYMBOL        _ICE_DUMMY_
  D:0090H         PUBLIC        P1
  C:0921H         PUBLIC        BMP1
  C:0D21H         PUBLIC        main
  -------         PROC          MAIN
  -------         DO            
  D:0008H         SYMBOL        t
  -------         ENDDO         
  C:0D21H         LINE#         33
  C:0D21H         LINE#         34
  C:0D21H         LINE#         35
  C:0D24H         LINE#         36
  C:0D27H         LINE#         37
  C:0D2CH         LINE#         38
  C:0D31H         LINE#         39
  C:0D31H         LINE#         40
  C:0D31H         LINE#         41
  C:0D45H         LINE#         42
  C:0D4CH         LINE#         43
  C:0D4FH         LINE#         44
  C:0D59H         LINE#         45
  C:0D65H         LINE#         46
  C:0D71H         LINE#         47
  C:0D7DH         LINE#         48
  C:0D89H         LINE#         49
  C:0D95H         LINE#         50
  C:0DA1H         LINE#         51
  C:0DB1H         LINE#         52
  C:0DC1H         LINE#         53
  C:0DD1H         LINE#         54
  C:0DE1H         LINE#         55
  C:0DEDH         LINE#         56
  C:0DEFH         LINE#         57
  C:0DF9H         LINE#         58
  C:0E0BH         LINE#         59
  C:0E12H         LINE#         60
  C:0E15H         LINE#         61
  -------         ENDPROC       MAIN
  -------         ENDMOD        MAIN

  -------         MODULE        OLED
  C:0000H         SYMBOL        _ICE_DUMMY_
  C:1310H         PUBLIC        OLED_Display_On
  D:0090H         PUBLIC        P1
  C:1252H         PUBLIC        _Send_Byte
  C:127EH         PUBLIC        _OLED_DisplayTurn
  C:0003H         PUBLIC        asc2_0806
  C:022BH         PUBLIC        asc2_1608
  C:0EE0H         PUBLIC        OLED_Init
  C:1199H         PUBLIC        _OLED_ShowString
BL51 BANKED LINKER/LOCATER V6.22.2.0                                                  03/11/2020  15:58:57  PAGE 5


  C:1229H         PUBLIC        _OLED_WR_Byte
  C:0E18H         PUBLIC        _OLED_ShowChar
  C:081BH         PUBLIC        Hzk
  C:133AH         PUBLIC        I2C_Start
  C:12E0H         PUBLIC        _OLED_ColorTurn
  C:1349H         PUBLIC        I2C_WaitAck
  C:1364H         PUBLIC        I2C_Stop
  C:12A4H         PUBLIC        _OLED_Set_Pos
  C:136EH         PUBLIC        IIC_delay
  C:12C6H         PUBLIC        _delay_ms
  C:1022H         PUBLIC        _OLED_ShowNum
  C:1325H         PUBLIC        OLED_Display_Off
  C:12F8H         PUBLIC        _oled_pow
  B:0090H.3       PUBLIC        OLED_SDA
  B:0090H.4       PUBLIC        OLED_SCL
  C:10ACH         PUBLIC        _OLED_ShowChinese
  C:11E3H         PUBLIC        OLED_Clear
  B:0090H.2       PUBLIC        OLED_RES
  C:1131H         PUBLIC        _OLED_DrawBMP
  -------         PROC          _DELAY_MS
  D:0006H         SYMBOL        ms
  -------         DO            
  D:0004H         SYMBOL        a
  -------         ENDDO         
  C:12C6H         LINE#         14
  C:12C6H         LINE#         15
  C:12C6H         LINE#         17
  C:12CAH         LINE#         18
  C:12CAH         LINE#         19
  C:12CEH         LINE#         20
  C:12D8H         LINE#         21
  C:12DDH         LINE#         22
  C:12DFH         LINE#         24
  -------         ENDPROC       _DELAY_MS
  -------         PROC          _OLED_COLORTURN
  D:0009H         SYMBOL        i
  C:12E0H         LINE#         27
  C:12E2H         LINE#         28
  C:12E2H         LINE#         29
  C:12E5H         LINE#         30
  C:12E5H         LINE#         31
  C:12EBH         LINE#         32
  C:12EBH         LINE#         33
  C:12F1H         LINE#         34
  C:12F1H         LINE#         35
  C:12F7H         LINE#         36
  C:12F7H         LINE#         37
  -------         ENDPROC       _OLED_COLORTURN
  -------         PROC          _OLED_DISPLAYTURN
  D:0009H         SYMBOL        i
  C:127EH         LINE#         40
  C:1280H         LINE#         41
  C:1280H         LINE#         42
  C:1283H         LINE#         43
  C:1283H         LINE#         44
  C:1289H         LINE#         45
  C:1290H         LINE#         46
BL51 BANKED LINKER/LOCATER V6.22.2.0                                                  03/11/2020  15:58:57  PAGE 6


  C:1290H         LINE#         47
  C:1296H         LINE#         48
  C:1296H         LINE#         49
  C:129CH         LINE#         50
  C:12A3H         LINE#         51
  C:12A3H         LINE#         52
  -------         ENDPROC       _OLED_DISPLAYTURN
  -------         PROC          IIC_DELAY
  -------         DO            
  D:0007H         SYMBOL        t
  -------         ENDDO         
  C:136EH         LINE#         56
  C:136EH         LINE#         57
  C:136EH         LINE#         58
  C:1370H         LINE#         59
  C:1376H         LINE#         60
  -------         ENDPROC       IIC_DELAY
  -------         PROC          I2C_START
  C:133AH         LINE#         63
  C:133AH         LINE#         64
  C:133AH         LINE#         65
  C:133CH         LINE#         66
  C:133EH         LINE#         67
  C:1341H         LINE#         68
  C:1343H         LINE#         69
  C:1346H         LINE#         70
  C:1348H         LINE#         72
  -------         ENDPROC       I2C_START
  -------         PROC          I2C_STOP
  C:1364H         LINE#         75
  C:1364H         LINE#         76
  C:1364H         LINE#         77
  C:1366H         LINE#         78
  C:1368H         LINE#         79
  C:136BH         LINE#         80
  C:136DH         LINE#         81
  -------         ENDPROC       I2C_STOP
  -------         PROC          I2C_WAITACK
  C:1349H         LINE#         84
  C:1349H         LINE#         85
  C:1349H         LINE#         86
  C:134BH         LINE#         87
  C:134EH         LINE#         88
  C:1350H         LINE#         89
  C:1353H         LINE#         90
  C:1355H         LINE#         91
  -------         ENDPROC       I2C_WAITACK
  -------         PROC          _SEND_BYTE
  D:0005H         SYMBOL        dat
  -------         DO            
  D:0004H         SYMBOL        i
  -------         ENDDO         
  C:1252H         LINE#         95
  C:1254H         LINE#         96
  C:1254H         LINE#         98
  C:1260H         LINE#         99
  C:1260H         LINE#         100
BL51 BANKED LINKER/LOCATER V6.22.2.0                                                  03/11/2020  15:58:57  PAGE 7


  C:1262H         LINE#         101
  C:1266H         LINE#         102
  C:1266H         LINE#         103
  C:1268H         LINE#         104
  C:126AH         LINE#         106
  C:126AH         LINE#         107
  C:126CH         LINE#         108
  C:126CH         LINE#         109
  C:126FH         LINE#         110
  C:1271H         LINE#         111
  C:1274H         LINE#         112
  C:1276H         LINE#         113
  C:127AH         LINE#         114
  C:127DH         LINE#         115
  -------         ENDPROC       _SEND_BYTE
  -------         PROC          L?0094
  -------         ENDPROC       L?0094
  -------         PROC          _OLED_WR_BYTE
  D:0002H         SYMBOL        dat
  D:0003H         SYMBOL        mode
  C:1229H         LINE#         120
  C:122DH         LINE#         121
  C:122DH         LINE#         122
  C:1230H         LINE#         123
  C:1235H         LINE#         124
  C:1238H         LINE#         125
  C:123FH         LINE#         126
  C:1244H         LINE#         127
  C:1247H         LINE#         128
  C:124CH         LINE#         129
  C:124FH         LINE#         130
  -------         ENDPROC       _OLED_WR_BYTE
  -------         PROC          _OLED_SET_POS
  D:0001H         SYMBOL        x
  D:0005H         SYMBOL        y
  C:12A4H         LINE#         135
  C:12A6H         LINE#         136
  C:12A6H         LINE#         137
  C:12AFH         LINE#         138
  C:12BDH         LINE#         139
  -------         ENDPROC       _OLED_SET_POS
  -------         PROC          OLED_DISPLAY_ON
  C:1310H         LINE#         142
  C:1310H         LINE#         143
  C:1310H         LINE#         144
  C:1317H         LINE#         145
  C:131EH         LINE#         146
  -------         ENDPROC       OLED_DISPLAY_ON
  -------         PROC          OLED_DISPLAY_OFF
  C:1325H         LINE#         149
  C:1325H         LINE#         150
  C:1325H         LINE#         151
  C:132CH         LINE#         152
  C:1333H         LINE#         153
  -------         ENDPROC       OLED_DISPLAY_OFF
  -------         PROC          OLED_CLEAR
  -------         DO            
BL51 BANKED LINKER/LOCATER V6.22.2.0                                                  03/11/2020  15:58:57  PAGE 8


  D:0001H         SYMBOL        i
  D:0009H         SYMBOL        n
  -------         ENDDO         
  C:11E3H         LINE#         156
  C:11E3H         LINE#         157
  C:11E3H         LINE#         159
  C:11EFH         LINE#         160
  C:11EFH         LINE#         161
  C:11F8H         LINE#         162
  C:11FEH         LINE#         163
  C:1205H         LINE#         164
  C:121EH         LINE#         165
  C:1221H         LINE#         166
  -------         ENDPROC       OLED_CLEAR
  -------         PROC          _OLED_SHOWCHAR
  D:0013H         SYMBOL        x
  D:0014H         SYMBOL        y
  D:0003H         SYMBOL        chr
  D:0016H         SYMBOL        sizey
  -------         DO            
  D:0017H         SYMBOL        c
  D:0018H         SYMBOL        sizex
  D:0019H         SYMBOL        i
  D:001BH         SYMBOL        size1
  -------         ENDDO         
  C:0E18H         LINE#         172
  C:0E1CH         LINE#         173
  C:0E1CH         LINE#         174
  C:0E26H         LINE#         175
  C:0E2BH         LINE#         176
  C:0E38H         LINE#         177
  C:0E61H         LINE#         178
  C:0E66H         LINE#         179
  C:0E6DH         LINE#         180
  C:0E7DH         LINE#         181
  C:0E7DH         LINE#         182
  C:0E9CH         LINE#         183
  C:0EB2H         LINE#         184
  C:0ED5H         LINE#         187
  C:0EDFH         LINE#         188
  -------         ENDPROC       _OLED_SHOWCHAR
  -------         PROC          _OLED_POW
  D:0013H         SYMBOL        m
  D:0001H         SYMBOL        n
  -------         DO            
  D:0006H         SYMBOL        result
  -------         ENDDO         
  C:12F8H         LINE#         190
  C:12FCH         LINE#         191
  C:12FCH         LINE#         192
  C:1300H         LINE#         193
  C:130FH         LINE#         194
  C:130FH         LINE#         195
  -------         ENDPROC       _OLED_POW
  -------         PROC          _OLED_SHOWNUM
  D:0009H         SYMBOL        x
  D:000AH         SYMBOL        y
BL51 BANKED LINKER/LOCATER V6.22.2.0                                                  03/11/2020  15:58:57  PAGE 9


  D:000BH         SYMBOL        num
  D:000DH         SYMBOL        len
  D:000EH         SYMBOL        sizey
  -------         DO            
  D:000FH         SYMBOL        t
  D:0010H         SYMBOL        temp
  D:0011H         SYMBOL        m
  D:0012H         SYMBOL        enshow
  -------         ENDDO         
  C:1022H         LINE#         201
  C:102AH         LINE#         202
  C:102AH         LINE#         203
  C:102DH         LINE#         204
  C:102FH         LINE#         205
  C:1038H         LINE#         206
  C:1042H         LINE#         207
  C:1042H         LINE#         208
  C:1064H         LINE#         209
  C:1072H         LINE#         210
  C:1072H         LINE#         211
  C:1076H         LINE#         212
  C:1076H         LINE#         213
  C:1088H         LINE#         214
  C:108AH         LINE#         215
  C:108DH         LINE#         216
  C:108DH         LINE#         217
  C:10A7H         LINE#         218
  C:10ABH         LINE#         219
  -------         ENDPROC       _OLED_SHOWNUM
  -------         PROC          _OLED_SHOWSTRING
  D:0009H         SYMBOL        x
  D:000AH         SYMBOL        y
  D:000BH         SYMBOL        chr
  D:000EH         SYMBOL        sizey
  -------         DO            
  D:000FH         SYMBOL        j
  -------         ENDDO         
  C:1199H         LINE#         221
  C:11A3H         LINE#         222
  C:11A3H         LINE#         223
  C:11A6H         LINE#         224
  C:11B7H         LINE#         225
  C:11B7H         LINE#         226
  C:11CEH         LINE#         227
  C:11D8H         LINE#         228
  C:11E0H         LINE#         229
  C:11E2H         LINE#         230
  -------         ENDPROC       _OLED_SHOWSTRING
  -------         PROC          _OLED_SHOWCHINESE
  D:0009H         SYMBOL        x
  D:000AH         SYMBOL        y
  D:000BH         SYMBOL        no
  D:000CH         SYMBOL        sizey
  -------         DO            
  D:000DH         SYMBOL        i
  D:000FH         SYMBOL        size1
  -------         ENDDO         
BL51 BANKED LINKER/LOCATER V6.22.2.0                                                  03/11/2020  15:58:57  PAGE 10


  C:10ACH         LINE#         232
  C:10B2H         LINE#         233
  C:10B2H         LINE#         234
  C:10DBH         LINE#         235
  C:10EBH         LINE#         236
  C:10EBH         LINE#         237
  C:1104H         LINE#         238
  C:1126H         LINE#         241
  C:1130H         LINE#         242
  -------         ENDPROC       _OLED_SHOWCHINESE
  -------         PROC          _OLED_DRAWBMP
  D:0009H         SYMBOL        x
  D:000AH         SYMBOL        y
  D:000BH         SYMBOL        sizex
  D:000CH         SYMBOL        sizey
  D:000DH         SYMBOL        BMP
  -------         DO            
  D:0010H         SYMBOL        j
  D:0012H         SYMBOL        i
  D:0013H         SYMBOL        m
  -------         ENDDO         
  C:1131H         LINE#         249
  C:1137H         LINE#         250
  C:1137H         LINE#         251
  C:113CH         LINE#         253
  C:1154H         LINE#         254
  C:115EH         LINE#         255
  C:115EH         LINE#         256
  C:1168H         LINE#         257
  C:1172H         LINE#         258
  C:1172H         LINE#         259
  C:1190H         LINE#         260
  C:1194H         LINE#         261
  C:1198H         LINE#         262
  -------         ENDPROC       _OLED_DRAWBMP
  -------         PROC          OLED_INIT
  C:0EE0H         LINE#         267
  C:0EE0H         LINE#         268
  C:0EE0H         LINE#         269
  C:0EE2H         LINE#         270
  C:0EE9H         LINE#         271
  C:0EEBH         LINE#         273
  C:0EF2H         LINE#         274
  C:0EF9H         LINE#         275
  C:0F00H         LINE#         276
  C:0F07H         LINE#         277
  C:0F0EH         LINE#         278
  C:0F15H         LINE#         279
  C:0F1CH         LINE#         280
  C:0F23H         LINE#         281
  C:0F29H         LINE#         282
  C:0F30H         LINE#         283
  C:0F37H         LINE#         284
  C:0F3EH         LINE#         285
  C:0F45H         LINE#         286
  C:0F4CH         LINE#         287
  C:0F53H         LINE#         288
BL51 BANKED LINKER/LOCATER V6.22.2.0                                                  03/11/2020  15:58:57  PAGE 11


  C:0F5AH         LINE#         289
  C:0F61H         LINE#         290
  C:0F68H         LINE#         291
  C:0F6FH         LINE#         292
  C:0F76H         LINE#         293
  C:0F7DH         LINE#         294
  C:0F84H         LINE#         295
  C:0F87H         LINE#         296
  -------         ENDPROC       OLED_INIT
  -------         ENDMOD        OLED

  -------         MODULE        ?C?CLDOPTR
  C:0F8EH         PUBLIC        ?C?CLDOPTR
  -------         ENDMOD        ?C?CLDOPTR

  -------         MODULE        ?C?IMUL
  C:0FBBH         PUBLIC        ?C?IMUL
  -------         ENDMOD        ?C?IMUL

  -------         MODULE        ?C?UIDIV
  C:0FCDH         PUBLIC        ?C?UIDIV
  -------         ENDMOD        ?C?UIDIV

*** WARNING L16: UNCALLED SEGMENT, IGNORED FOR OVERLAY PROCESS
    SEGMENT: ?PR?OLED_DISPLAY_ON?OLED

*** WARNING L16: UNCALLED SEGMENT, IGNORED FOR OVERLAY PROCESS
    SEGMENT: ?PR?OLED_DISPLAY_OFF?OLED

Program Size: data=30.0 xdata=0 code=4983
LINK/LOCATE RUN COMPLETE.  2 WARNING(S),  0 ERROR(S)
